target datalayout = "e-m:e-p270:32:32-p271:32:32-p272:64:64-i64:64-i128:128-f80:128-n8:16:32:64-S128"
target triple = "x86_64-pc-linux-gnu"

%"class.perf::TestBase" = type { %"class.testing::Test", %"class.std::vector.3", %"class.std::vector.3", i32, %"class.std::vector.8", i64, i64, i64, i32, i32, i32, i32, i32, [4 x i8], %"struct.perf::performance_metrics", i8, %"class.perf::TestBase::_declareHelper" }
%"class.testing::Test" = type { ptr, %"class.testing::internal::scoped_ptr" }
%"class.testing::internal::scoped_ptr" = type { ptr }
%"class.std::vector.3" = type { %"struct.std::_Vector_base.4" }
%"struct.std::_Vector_base.4" = type { %"struct.std::_Vector_base<std::pair<int, cv::Size_<int>>, std::allocator<std::pair<int, cv::Size_<int>>>>::_Vector_impl" }
%"struct.std::_Vector_base<std::pair<int, cv::Size_<int>>, std::allocator<std::pair<int, cv::Size_<int>>>>::_Vector_impl" = type { %"struct.std::_Vector_base<std::pair<int, cv::Size_<int>>, std::allocator<std::pair<int, cv::Size_<int>>>>::_Vector_impl_data" }
%"struct.std::_Vector_base<std::pair<int, cv::Size_<int>>, std::allocator<std::pair<int, cv::Size_<int>>>>::_Vector_impl_data" = type { ptr, ptr, ptr }
%"class.std::vector.8" = type { %"struct.std::_Vector_base.9" }
%"struct.std::_Vector_base.9" = type { %"struct.std::_Vector_base<long, std::allocator<long>>::_Vector_impl" }
%"struct.std::_Vector_base<long, std::allocator<long>>::_Vector_impl" = type { %"struct.std::_Vector_base<long, std::allocator<long>>::_Vector_impl_data" }
%"struct.std::_Vector_base<long, std::allocator<long>>::_Vector_impl_data" = type { ptr, ptr, ptr }
%"struct.perf::performance_metrics" = type <{ i64, i64, i32, i32, double, double, double, double, double, double, double, i32, [4 x i8] }>
%"class.perf::TestBase::_declareHelper" = type { ptr }

@_ZL13strategyForce = internal global i32 -1, align 4
@_ZL14strategyModule = internal global i32 1, align 4

; Function Attrs: mustprogress nounwind uwtable
define hidden noundef i32 @_ZNK4perf8TestBase29getCurrentPerformanceStrategyEv(ptr noundef nonnull align 8 dereferenceable(248) %0) #6 align 2 {
  %2 = alloca i32, align 4
  %3 = alloca ptr, align 8
  store ptr %0, ptr %3, align 8, !tbaa !21
  %4 = load ptr, ptr %3, align 8
  %5 = load i32, ptr @_ZL13strategyForce, align 4, !tbaa !162
  %6 = icmp eq i32 %5, -1
  br i1 %6, label %7, label %18

7:                                                ; preds = %1
  %8 = getelementptr inbounds nuw %"class.perf::TestBase", ptr %4, i32 0, i32 3
  %9 = load i32, ptr %8, align 8, !tbaa !182
  %10 = icmp eq i32 %9, -1
  br i1 %10, label %11, label %13

11:                                               ; preds = %7
  %12 = load i32, ptr @_ZL14strategyModule, align 4, !tbaa !162
  br label %16

13:                                               ; preds = %7
  %14 = getelementptr inbounds nuw %"class.perf::TestBase", ptr %4, i32 0, i32 3
  %15 = load i32, ptr %14, align 8, !tbaa !182
  br label %16

16:                                               ; preds = %13, %11
  %17 = phi i32 [ %12, %11 ], [ %15, %13 ]
  store i32 %17, ptr %2, align 4
  br label %20

18:                                               ; preds = %1
  %19 = load i32, ptr @_ZL13strategyForce, align 4, !tbaa !162
  store i32 %19, ptr %2, align 4
  br label %20

20:                                               ; preds = %18, %16
  %21 = load i32, ptr %2, align 4
  ret i32 %21
}