; Function Attrs: mustprogress nofree norecurse nosync nounwind willreturn memory(read, inaccessiblemem: none) uwtable
define hidden noundef i32 @_ZNK4perf8TestBase29getCurrentPerformanceStrategyEv(ptr noundef nonnull readonly align 8 captures(none) dereferenceable(248) %0) local_unnamed_addr #11 align 2 {
  %2 = load i32, ptr @_ZL13strategyForce, align 4, !tbaa !265
  %3 = icmp eq i32 %2, -1
  %4 = getelementptr inbounds nuw i8, ptr %0, i64 64
  %5 = load i32, ptr %4, align 8
  %6 = icmp eq i32 %5, -1
  %7 = load i32, ptr @_ZL14strategyModule, align 4
  %8 = select i1 %6, i32 %7, i32 %5
  %.0 = select i1 %3, i32 %8, i32 %2
  ret i32 %.0
}